target datalayout = "e-m:e-p270:32:32-p271:32:32-p272:64:64-i64:64-i128:128-f80:128-n8:16:32:64-S128"
target triple = "x86_64-pc-linux-gnu"

%"class.std::__cxx11::basic_string" = type { %"struct.std::__cxx11::basic_string<char>::_Alloc_hider", i64, %union.anon }
%"struct.std::__cxx11::basic_string<char>::_Alloc_hider" = type { ptr }
%union.anon = type { i64, [8 x i8] }
%class.colvarbias_meta = type { ptr, i32, double, %"class.std::vector.3", i64, i8, %"class.std::__cxx11::list", %"struct.std::_List_iterator", %"class.std::__cxx11::list", %"struct.std::_List_iterator", double, i8, i8, i8, i64, i8, i8, i8, i8, i8, i8, double, i8, ptr, i64, i8, ptr, ptr, %"class.std::__cxx11::basic_string", %"class.std::__cxx11::basic_string", %"class.std::vector.11", i64, %"class.std::__cxx11::basic_string", %"class.std::__cxx11::basic_string", %"class.std::__cxx11::basic_string", %"class.std::__cxx11::basic_string", i8, i64, %"class.std::__cxx11::basic_string", %"class.std::fpos", %"class.std::__cxx11::basic_ostringstream", %class.colvarbias.base, %class.colvarparse, %class.colvardeps, %class.colvarbias_ti.base }
%"class.std::vector.3" = type { %"struct.std::_Vector_base.4" }
%"struct.std::_Vector_base.4" = type { %"struct.std::_Vector_base<double, std::allocator<double>>::_Vector_impl" }
%"struct.std::_Vector_base<double, std::allocator<double>>::_Vector_impl" = type { %"struct.std::_Vector_base<double, std::allocator<double>>::_Vector_impl_data" }
%"struct.std::_Vector_base<double, std::allocator<double>>::_Vector_impl_data" = type { ptr, ptr, ptr }
%"class.std::__cxx11::list" = type { %"class.std::__cxx11::_List_base" }
%"class.std::__cxx11::_List_base" = type { %"struct.std::__cxx11::_List_base<colvarbias_meta::hill, std::allocator<colvarbias_meta::hill>>::_List_impl" }
%"struct.std::__cxx11::_List_base<colvarbias_meta::hill, std::allocator<colvarbias_meta::hill>>::_List_impl" = type { %"struct.std::__detail::_List_node_header" }
%"struct.std::__detail::_List_node_header" = type { %"struct.std::__detail::_List_node_base", i64 }
%"struct.std::__detail::_List_node_base" = type { ptr, ptr }
%"struct.std::_List_iterator" = type { ptr }
%"class.std::vector.11" = type { %"struct.std::_Vector_base.12" }
%"struct.std::_Vector_base.12" = type { %"struct.std::_Vector_base<colvarbias_meta *, std::allocator<colvarbias_meta *>>::_Vector_impl" }
%"struct.std::_Vector_base<colvarbias_meta *, std::allocator<colvarbias_meta *>>::_Vector_impl" = type { %"struct.std::_Vector_base<colvarbias_meta *, std::allocator<colvarbias_meta *>>::_Vector_impl_data" }
%"struct.std::_Vector_base<colvarbias_meta *, std::allocator<colvarbias_meta *>>::_Vector_impl_data" = type { ptr, ptr, ptr }
%"class.std::fpos" = type { i64, %struct.__mbstate_t }
%struct.__mbstate_t = type { i32, %union.anon.16 }
%union.anon.16 = type { i32 }
%"class.std::__cxx11::basic_ostringstream" = type { %"class.std::basic_ostream.base", %"class.std::__cxx11::basic_stringbuf", %"class.std::basic_ios" }
%"class.std::basic_ostream.base" = type { ptr }
%"class.std::__cxx11::basic_stringbuf" = type { %"class.std::basic_streambuf", i32, %"class.std::__cxx11::basic_string" }
%"class.std::basic_streambuf" = type { ptr, ptr, ptr, ptr, ptr, ptr, ptr, %"class.std::locale" }
%"class.std::locale" = type { ptr }
%"class.std::basic_ios" = type { %"class.std::ios_base", ptr, i8, i8, ptr, ptr, ptr, ptr }
%"class.std::ios_base" = type { ptr, i64, i64, i32, i32, i32, ptr, %"struct.std::ios_base::_Words", [8 x %"struct.std::ios_base::_Words"], i32, ptr, %"class.std::locale" }
%"struct.std::ios_base::_Words" = type { ptr, i64 }
%class.colvarbias.base = type { ptr, %"class.std::__cxx11::basic_string", %"class.std::__cxx11::basic_string", %"class.std::__cxx11::basic_string", i32, i64, %"class.std::__cxx11::basic_string", %"class.std::vector.50", %"class.std::vector.55", %"class.std::vector.55", %"class.std::vector.55", double, i8, i8, i64, i8, ptr, %"class.std::vector.60" }
%"class.std::vector.50" = type { %"struct.std::_Vector_base.51" }
%"struct.std::_Vector_base.51" = type { %"struct.std::_Vector_base<colvar *, std::allocator<colvar *>>::_Vector_impl" }
%"struct.std::_Vector_base<colvar *, std::allocator<colvar *>>::_Vector_impl" = type { %"struct.std::_Vector_base<colvar *, std::allocator<colvar *>>::_Vector_impl_data" }
%"struct.std::_Vector_base<colvar *, std::allocator<colvar *>>::_Vector_impl_data" = type { ptr, ptr, ptr }
%"class.std::vector.55" = type { %"struct.std::_Vector_base.56" }
%"struct.std::_Vector_base.56" = type { %"struct.std::_Vector_base<colvarvalue, std::allocator<colvarvalue>>::_Vector_impl" }
%"struct.std::_Vector_base<colvarvalue, std::allocator<colvarvalue>>::_Vector_impl" = type { %"struct.std::_Vector_base<colvarvalue, std::allocator<colvarvalue>>::_Vector_impl_data" }
%"struct.std::_Vector_base<colvarvalue, std::allocator<colvarvalue>>::_Vector_impl_data" = type { ptr, ptr, ptr }
%"class.std::vector.60" = type { %"struct.std::_Vector_base.61" }
%"struct.std::_Vector_base.61" = type { %"struct.std::_Vector_base<int, std::allocator<int>>::_Vector_impl" }
%"struct.std::_Vector_base<int, std::allocator<int>>::_Vector_impl" = type { %"struct.std::_Vector_base<int, std::allocator<int>>::_Vector_impl_data" }
%"struct.std::_Vector_base<int, std::allocator<int>>::_Vector_impl_data" = type { ptr, ptr, ptr }
%class.colvarparse = type { %class.colvarparams, %"class.std::__cxx11::basic_string", %"class.std::__cxx11::basic_string", %"class.std::__cxx11::list.25", %"class.std::map.30", %"class.std::__cxx11::list.35", %"class.std::__cxx11::list.35", %"class.std::__cxx11::basic_string" }
%class.colvarparams = type { ptr, %"class.std::map", %"class.std::map.20" }
%"class.std::map" = type { %"class.std::_Rb_tree" }
%"class.std::_Rb_tree" = type { %"struct.std::_Rb_tree<std::__cxx11::basic_string<char>, std::pair<const std::__cxx11::basic_string<char>, const void *>, std::_Select1st<std::pair<const std::__cxx11::basic_string<char>, const void *>>, std::less<std::__cxx11::basic_string<char>>>::_Rb_tree_impl" }
%"struct.std::_Rb_tree<std::__cxx11::basic_string<char>, std::pair<const std::__cxx11::basic_string<char>, const void *>, std::_Select1st<std::pair<const std::__cxx11::basic_string<char>, const void *>>, std::less<std::__cxx11::basic_string<char>>>::_Rb_tree_impl" = type { %"struct.std::_Rb_tree_key_compare", %"struct.std::_Rb_tree_header" }
%"struct.std::_Rb_tree_key_compare" = type { %"struct.std::less" }
%"struct.std::less" = type { i8 }
%"struct.std::_Rb_tree_header" = type { %"struct.std::_Rb_tree_node_base", i64 }
%"struct.std::_Rb_tree_node_base" = type { i32, ptr, ptr, ptr }
%"class.std::map.20" = type { %"class.std::_Rb_tree.21" }
%"class.std::_Rb_tree.21" = type { %"struct.std::_Rb_tree<std::__cxx11::basic_string<char>, std::pair<const std::__cxx11::basic_string<char>, const colvarvalue *>, std::_Select1st<std::pair<const std::__cxx11::basic_string<char>, const colvarvalue *>>, std::less<std::__cxx11::basic_string<char>>>::_Rb_tree_impl" }
%"struct.std::_Rb_tree<std::__cxx11::basic_string<char>, std::pair<const std::__cxx11::basic_string<char>, const colvarvalue *>, std::_Select1st<std::pair<const std::__cxx11::basic_string<char>, const colvarvalue *>>, std::less<std::__cxx11::basic_string<char>>>::_Rb_tree_impl" = type { %"struct.std::_Rb_tree_key_compare", %"struct.std::_Rb_tree_header" }
%"class.std::__cxx11::list.25" = type { %"class.std::__cxx11::_List_base.26" }
%"class.std::__cxx11::_List_base.26" = type { %"struct.std::__cxx11::_List_base<std::__cxx11::basic_string<char>, std::allocator<std::__cxx11::basic_string<char>>>::_List_impl" }
%"struct.std::__cxx11::_List_base<std::__cxx11::basic_string<char>, std::allocator<std::__cxx11::basic_string<char>>>::_List_impl" = type { %"struct.std::__detail::_List_node_header" }
%"class.std::map.30" = type { %"class.std::_Rb_tree.31" }
%"class.std::_Rb_tree.31" = type { %"struct.std::_Rb_tree<std::__cxx11::basic_string<char>, std::pair<const std::__cxx11::basic_string<char>, colvarparse::key_set_mode>, std::_Select1st<std::pair<const std::__cxx11::basic_string<char>, colvarparse::key_set_mode>>, std::less<std::__cxx11::basic_string<char>>>::_Rb_tree_impl" }
%"struct.std::_Rb_tree<std::__cxx11::basic_string<char>, std::pair<const std::__cxx11::basic_string<char>, colvarparse::key_set_mode>, std::_Select1st<std::pair<const std::__cxx11::basic_string<char>, colvarparse::key_set_mode>>, std::less<std::__cxx11::basic_string<char>>>::_Rb_tree_impl" = type { %"struct.std::_Rb_tree_key_compare", %"struct.std::_Rb_tree_header" }
%"class.std::__cxx11::list.35" = type { %"class.std::__cxx11::_List_base.36" }
%"class.std::__cxx11::_List_base.36" = type { %"struct.std::__cxx11::_List_base<unsigned long, std::allocator<unsigned long>>::_List_impl" }
%"struct.std::__cxx11::_List_base<unsigned long, std::allocator<unsigned long>>::_List_impl" = type { %"struct.std::__detail::_List_node_header" }
%class.colvardeps = type { ptr, %"class.std::__cxx11::basic_string", i32, %"class.std::vector.40", %"class.std::vector.45", %"class.std::vector.45" }
%"class.std::vector.40" = type { %"struct.std::_Vector_base.41" }
%"struct.std::_Vector_base.41" = type { %"struct.std::_Vector_base<colvardeps::feature_state, std::allocator<colvardeps::feature_state>>::_Vector_impl" }
%"struct.std::_Vector_base<colvardeps::feature_state, std::allocator<colvardeps::feature_state>>::_Vector_impl" = type { %"struct.std::_Vector_base<colvardeps::feature_state, std::allocator<colvardeps::feature_state>>::_Vector_impl_data" }
%"struct.std::_Vector_base<colvardeps::feature_state, std::allocator<colvardeps::feature_state>>::_Vector_impl_data" = type { ptr, ptr, ptr }
%"class.std::vector.45" = type { %"struct.std::_Vector_base.46" }
%"struct.std::_Vector_base.46" = type { %"struct.std::_Vector_base<colvardeps *, std::allocator<colvardeps *>>::_Vector_impl" }
%"struct.std::_Vector_base<colvardeps *, std::allocator<colvardeps *>>::_Vector_impl" = type { %"struct.std::_Vector_base<colvardeps *, std::allocator<colvardeps *>>::_Vector_impl_data" }
%"struct.std::_Vector_base<colvardeps *, std::allocator<colvardeps *>>::_Vector_impl_data" = type { ptr, ptr, ptr }
%class.colvarbias_ti.base = type { ptr, %"class.std::vector.55", ptr, ptr, %"class.std::vector.60" }
%"struct.std::_List_node" = type { %"struct.std::__detail::_List_node_base", %"struct.__gnu_cxx::__aligned_membuf" }
%"struct.__gnu_cxx::__aligned_membuf" = type { [112 x i8] }

@_ZN15colvarbias_meta4hillD1Ev = unnamed_addr alias void (ptr), ptr @_ZN15colvarbias_meta4hillD2Ev

; Function Attrs: mustprogress nounwind uwtable
define linkonce_odr void @_ZNSt15__new_allocatorISt10_List_nodeIN15colvarbias_meta4hillEEE10deallocateEPS3_m(ptr noundef nonnull align 1 dereferenceable(1) %0, ptr noundef %1, i64 noundef %2) #1 comdat align 2 {
  %4 = alloca ptr, align 8
  %5 = alloca ptr, align 8
  %6 = alloca i64, align 8
  store ptr %0, ptr %4, align 8
  store ptr %1, ptr %5, align 8
  store i64 %2, ptr %6, align 8
  %7 = load ptr, ptr %5, align 8
  call void @_ZdlPv(ptr noundef %7) #15
  ret void
}

; Function Attrs: mustprogress nounwind uwtable
define linkonce_odr noundef ptr @_ZN9__gnu_cxx16__aligned_membufIN15colvarbias_meta4hillEE7_M_addrEv(ptr noundef nonnull align 8 dereferenceable(112) %0) #1 comdat align 2 {
  %2 = alloca ptr, align 8
  store ptr %0, ptr %2, align 8
  %3 = load ptr, ptr %2, align 8
  %4 = getelementptr inbounds %"struct.__gnu_cxx::__aligned_membuf", ptr %3, i32 0, i32 0
  ret ptr %4
}

; Function Attrs: mustprogress uwtable
define linkonce_odr void @_ZNSt16allocator_traitsISaISt10_List_nodeIN15colvarbias_meta4hillEEEE10deallocateERS4_PS3_m(ptr noundef nonnull align 1 dereferenceable(1) %0, ptr noundef %1, i64 noundef %2) #4 comdat align 2 {
  %4 = alloca ptr, align 8
  %5 = alloca ptr, align 8
  %6 = alloca i64, align 8
  store ptr %0, ptr %4, align 8
  store ptr %1, ptr %5, align 8
  store i64 %2, ptr %6, align 8
  %7 = load ptr, ptr %4, align 8
  %8 = load ptr, ptr %5, align 8
  %9 = load i64, ptr %6, align 8
  call void @_ZNSt15__new_allocatorISt10_List_nodeIN15colvarbias_meta4hillEEE10deallocateEPS3_m(ptr noundef nonnull align 1 dereferenceable(1) %7, ptr noundef %8, i64 noundef %9)
  ret void
}

; Function Attrs: mustprogress nounwind uwtable
define linkonce_odr void @_ZNSt15__new_allocatorISt10_List_nodeIN15colvarbias_meta4hillEEE7destroyIS2_EEvPT_(ptr noundef nonnull align 1 dereferenceable(1) %0, ptr noundef %1) #1 comdat align 2 {
  %3 = alloca ptr, align 8
  %4 = alloca ptr, align 8
  store ptr %0, ptr %3, align 8
  store ptr %1, ptr %4, align 8
  %5 = load ptr, ptr %4, align 8
  call void @_ZN15colvarbias_meta4hillD1Ev(ptr noundef nonnull align 8 dereferenceable(112) %5) #14
  ret void
}

; Function Attrs: mustprogress nounwind uwtable
define linkonce_odr noundef ptr @_ZN9__gnu_cxx16__aligned_membufIN15colvarbias_meta4hillEE6_M_ptrEv(ptr noundef nonnull align 8 dereferenceable(112) %0) #1 comdat align 2 {
  %2 = alloca ptr, align 8
  store ptr %0, ptr %2, align 8
  %3 = load ptr, ptr %2, align 8
  %4 = call noundef ptr @_ZN9__gnu_cxx16__aligned_membufIN15colvarbias_meta4hillEE7_M_addrEv(ptr noundef nonnull align 8 dereferenceable(112) %3) #14
  ret ptr %4
}

; Function Attrs: mustprogress nounwind uwtable
define linkonce_odr void @_ZNSt8__detail17_List_node_header7_M_initEv(ptr noundef nonnull align 8 dereferenceable(24) %0) #1 comdat align 2 {
  %2 = alloca ptr, align 8
  store ptr %0, ptr %2, align 8
  %3 = load ptr, ptr %2, align 8
  %4 = getelementptr inbounds %"struct.std::__detail::_List_node_base", ptr %3, i32 0, i32 1
  store ptr %3, ptr %4, align 8
  %5 = getelementptr inbounds %"struct.std::__detail::_List_node_base", ptr %3, i32 0, i32 0
  store ptr %3, ptr %5, align 8
  %6 = getelementptr inbounds %"struct.std::__detail::_List_node_header", ptr %3, i32 0, i32 1
  store i64 0, ptr %6, align 8
  ret void
}

; Function Attrs: noreturn nounwind uwtable
define linkonce_odr hidden void @__clang_call_terminate(ptr noundef %0) #8 comdat {
  %2 = call ptr @__cxa_begin_catch(ptr %0) #14
  call void @_ZSt9terminatev() #17
  unreachable
}

; Function Attrs: mustprogress nounwind uwtable
define linkonce_odr void @_ZNSt7__cxx1110_List_baseIN15colvarbias_meta4hillESaIS2_EE11_M_put_nodeEPSt10_List_nodeIS2_E(ptr noundef nonnull align 8 dereferenceable(24) %0, ptr noundef %1) #1 comdat align 2 personality ptr @__gxx_personality_v0 {
  %3 = alloca ptr, align 8
  %4 = alloca ptr, align 8
  store ptr %0, ptr %3, align 8
  store ptr %1, ptr %4, align 8
  %5 = load ptr, ptr %3, align 8
  %6 = getelementptr inbounds %"class.std::__cxx11::_List_base", ptr %5, i32 0, i32 0
  %7 = load ptr, ptr %4, align 8
  invoke void @_ZNSt16allocator_traitsISaISt10_List_nodeIN15colvarbias_meta4hillEEEE10deallocateERS4_PS3_m(ptr noundef nonnull align 1 dereferenceable(1) %6, ptr noundef %7, i64 noundef 1)
          to label %8 unwind label %9

8:                                                ; preds = %2
  ret void

9:                                                ; preds = %2
  %10 = landingpad { ptr, i32 }
          catch ptr null
  %11 = extractvalue { ptr, i32 } %10, 0
  call void @__clang_call_terminate(ptr %11) #17
  unreachable
}

; Function Attrs: mustprogress nounwind uwtable
define linkonce_odr void @_ZNSt16allocator_traitsISaISt10_List_nodeIN15colvarbias_meta4hillEEEE7destroyIS2_EEvRS4_PT_(ptr noundef nonnull align 1 dereferenceable(1) %0, ptr noundef %1) #1 comdat align 2 {
  %3 = alloca ptr, align 8
  %4 = alloca ptr, align 8
  store ptr %0, ptr %3, align 8
  store ptr %1, ptr %4, align 8
  %5 = load ptr, ptr %3, align 8
  %6 = load ptr, ptr %4, align 8
  call void @_ZNSt15__new_allocatorISt10_List_nodeIN15colvarbias_meta4hillEEE7destroyIS2_EEvPT_(ptr noundef nonnull align 1 dereferenceable(1) %5, ptr noundef %6) #14
  ret void
}

; Function Attrs: mustprogress nounwind uwtable
define linkonce_odr noundef nonnull align 1 dereferenceable(1) ptr @_ZNSt7__cxx1110_List_baseIN15colvarbias_meta4hillESaIS2_EE21_M_get_Node_allocatorEv(ptr noundef nonnull align 8 dereferenceable(24) %0) #1 comdat align 2 {
  %2 = alloca ptr, align 8
  store ptr %0, ptr %2, align 8
  %3 = load ptr, ptr %2, align 8
  %4 = getelementptr inbounds %"class.std::__cxx11::_List_base", ptr %3, i32 0, i32 0
  ret ptr %4
}

; Function Attrs: mustprogress nounwind uwtable
define linkonce_odr noundef ptr @_ZNSt10_List_nodeIN15colvarbias_meta4hillEE9_M_valptrEv(ptr noundef nonnull align 8 dereferenceable(128) %0) #1 comdat align 2 {
  %2 = alloca ptr, align 8
  store ptr %0, ptr %2, align 8
  %3 = load ptr, ptr %2, align 8
  %4 = getelementptr inbounds %"struct.std::_List_node", ptr %3, i32 0, i32 1
  %5 = call noundef ptr @_ZN9__gnu_cxx16__aligned_membufIN15colvarbias_meta4hillEE6_M_ptrEv(ptr noundef nonnull align 8 dereferenceable(112) %4) #14
  ret ptr %5
}

; Function Attrs: mustprogress nounwind uwtable
define linkonce_odr void @_ZNSt7__cxx1110_List_baseIN15colvarbias_meta4hillESaIS2_EE7_M_initEv(ptr noundef nonnull align 8 dereferenceable(24) %0) #1 comdat align 2 {
  %2 = alloca ptr, align 8
  store ptr %0, ptr %2, align 8
  %3 = load ptr, ptr %2, align 8
  %4 = getelementptr inbounds %"class.std::__cxx11::_List_base", ptr %3, i32 0, i32 0
  %5 = getelementptr inbounds %"struct.std::__cxx11::_List_base<colvarbias_meta::hill, std::allocator<colvarbias_meta::hill>>::_List_impl", ptr %4, i32 0, i32 0
  call void @_ZNSt8__detail17_List_node_header7_M_initEv(ptr noundef nonnull align 8 dereferenceable(24) %5) #14
  ret void
}

; Function Attrs: mustprogress nounwind uwtable
define linkonce_odr void @_ZNSt7__cxx1110_List_baseIN15colvarbias_meta4hillESaIS2_EE8_M_clearEv(ptr noundef nonnull align 8 dereferenceable(24) %0) #1 comdat align 2 personality ptr @__gxx_personality_v0 {
  %2 = alloca ptr, align 8
  %3 = alloca ptr, align 8
  %4 = alloca ptr, align 8
  %5 = alloca ptr, align 8
  store ptr %0, ptr %2, align 8
  %6 = load ptr, ptr %2, align 8
  %7 = getelementptr inbounds %"class.std::__cxx11::_List_base", ptr %6, i32 0, i32 0
  %8 = getelementptr inbounds %"struct.std::__cxx11::_List_base<colvarbias_meta::hill, std::allocator<colvarbias_meta::hill>>::_List_impl", ptr %7, i32 0, i32 0
  %9 = getelementptr inbounds %"struct.std::__detail::_List_node_base", ptr %8, i32 0, i32 0
  %10 = load ptr, ptr %9, align 8
  store ptr %10, ptr %3, align 8
  br label %11

11:                                               ; preds = %23, %1
  %12 = load ptr, ptr %3, align 8
  %13 = getelementptr inbounds %"class.std::__cxx11::_List_base", ptr %6, i32 0, i32 0
  %14 = getelementptr inbounds %"struct.std::__cxx11::_List_base<colvarbias_meta::hill, std::allocator<colvarbias_meta::hill>>::_List_impl", ptr %13, i32 0, i32 0
  %15 = icmp ne ptr %12, %14
  br i1 %15, label %16, label %27

16:                                               ; preds = %11
  %17 = load ptr, ptr %3, align 8
  store ptr %17, ptr %4, align 8
  %18 = load ptr, ptr %4, align 8
  %19 = getelementptr inbounds %"struct.std::__detail::_List_node_base", ptr %18, i32 0, i32 0
  %20 = load ptr, ptr %19, align 8
  store ptr %20, ptr %3, align 8
  %21 = load ptr, ptr %4, align 8
  %22 = invoke noundef ptr @_ZNSt10_List_nodeIN15colvarbias_meta4hillEE9_M_valptrEv(ptr noundef nonnull align 8 dereferenceable(128) %21)
          to label %23 unwind label %28

23:                                               ; preds = %16
  store ptr %22, ptr %5, align 8
  %24 = call noundef nonnull align 1 dereferenceable(1) ptr @_ZNSt7__cxx1110_List_baseIN15colvarbias_meta4hillESaIS2_EE21_M_get_Node_allocatorEv(ptr noundef nonnull align 8 dereferenceable(24) %6) #14
  %25 = load ptr, ptr %5, align 8
  call void @_ZNSt16allocator_traitsISaISt10_List_nodeIN15colvarbias_meta4hillEEEE7destroyIS2_EEvRS4_PT_(ptr noundef nonnull align 1 dereferenceable(1) %24, ptr noundef %25) #14
  %26 = load ptr, ptr %4, align 8
  call void @_ZNSt7__cxx1110_List_baseIN15colvarbias_meta4hillESaIS2_EE11_M_put_nodeEPSt10_List_nodeIS2_E(ptr noundef nonnull align 8 dereferenceable(24) %6, ptr noundef %26) #14
  br label %11, !llvm.loop !41

27:                                               ; preds = %11
  ret void

28:                                               ; preds = %16
  %29 = landingpad { ptr, i32 }
          catch ptr null
  %30 = extractvalue { ptr, i32 } %29, 0
  call void @__clang_call_terminate(ptr %30) #17
  unreachable
}

; Function Attrs: mustprogress nounwind uwtable
define linkonce_odr void @_ZNSt7__cxx114listIN15colvarbias_meta4hillESaIS2_EE5clearEv(ptr noundef nonnull align 8 dereferenceable(24) %0) #1 comdat align 2 {
  %2 = alloca ptr, align 8
  store ptr %0, ptr %2, align 8
  %3 = load ptr, ptr %2, align 8
  call void @_ZNSt7__cxx1110_List_baseIN15colvarbias_meta4hillESaIS2_EE8_M_clearEv(ptr noundef nonnull align 8 dereferenceable(24) %3) #14
  call void @_ZNSt7__cxx1110_List_baseIN15colvarbias_meta4hillESaIS2_EE7_M_initEv(ptr noundef nonnull align 8 dereferenceable(24) %3) #14
  ret void
}

; Function Attrs: mustprogress nounwind uwtable
define noundef i32 @_ZN15colvarbias_meta16clear_state_dataEv(ptr noundef nonnull align 8 dereferenceable(880) %0) unnamed_addr #1 align 2 {
  %2 = alloca ptr, align 8
  store ptr %0, ptr %2, align 8
  %3 = load ptr, ptr %2, align 8
  %4 = getelementptr inbounds %class.colvarbias_meta, ptr %3, i32 0, i32 26
  %5 = load ptr, ptr %4, align 8
  %6 = icmp ne ptr %5, null
  br i1 %6, label %7, label %17

7:                                                ; preds = %1
  %8 = getelementptr inbounds %class.colvarbias_meta, ptr %3, i32 0, i32 26
  %9 = load ptr, ptr %8, align 8
  %10 = icmp eq ptr %9, null
  br i1 %10, label %15, label %11

11:                                               ; preds = %7
  %12 = load ptr, ptr %9, align 8
  %13 = getelementptr inbounds ptr, ptr %12, i64 7
  %14 = load ptr, ptr %13, align 8
  call void %14(ptr noundef nonnull align 8 dereferenceable(712) %9) #14
  br label %15

15:                                               ; preds = %11, %7
  %16 = getelementptr inbounds %class.colvarbias_meta, ptr %3, i32 0, i32 26
  store ptr null, ptr %16, align 8
  br label %17

17:                                               ; preds = %15, %1
  %18 = getelementptr inbounds %class.colvarbias_meta, ptr %3, i32 0, i32 27
  %19 = load ptr, ptr %18, align 8
  %20 = icmp ne ptr %19, null
  br i1 %20, label %21, label %31

21:                                               ; preds = %17
  %22 = getelementptr inbounds %class.colvarbias_meta, ptr %3, i32 0, i32 27
  %23 = load ptr, ptr %22, align 8
  %24 = icmp eq ptr %23, null
  br i1 %24, label %29, label %25

25:                                               ; preds = %21
  %26 = load ptr, ptr %23, align 8
  %27 = getelementptr inbounds ptr, ptr %26, i64 7
  %28 = load ptr, ptr %27, align 8
  call void %28(ptr noundef nonnull align 8 dereferenceable(720) %23) #14
  br label %29

29:                                               ; preds = %25, %21
  %30 = getelementptr inbounds %class.colvarbias_meta, ptr %3, i32 0, i32 27
  store ptr null, ptr %30, align 8
  br label %31

31:                                               ; preds = %29, %17
  %32 = getelementptr inbounds %class.colvarbias_meta, ptr %3, i32 0, i32 6
  call void @_ZNSt7__cxx114listIN15colvarbias_meta4hillESaIS2_EE5clearEv(ptr noundef nonnull align 8 dereferenceable(24) %32) #14
  %33 = getelementptr inbounds %class.colvarbias_meta, ptr %3, i32 0, i32 8
  call void @_ZNSt7__cxx114listIN15colvarbias_meta4hillESaIS2_EE5clearEv(ptr noundef nonnull align 8 dereferenceable(24) %33) #14
  ret i32 0
}