; Function Attrs: mustprogress nounwind uwtable
define noundef i32 @_ZN15colvarbias_meta16clear_state_dataEv(ptr noundef nonnull align 8 dereferenceable(880) %0) unnamed_addr #1 align 2 personality ptr @__gxx_personality_v0 {
  %2 = getelementptr inbounds i8, ptr %0, i64 200
  %3 = load ptr, ptr %2, align 8
  %.not = icmp eq ptr %3, null
  br i1 %.not, label %8, label %4

4:                                                ; preds = %1
  %5 = load ptr, ptr %3, align 8
  %6 = getelementptr inbounds i8, ptr %5, i64 56
  %7 = load ptr, ptr %6, align 8
  tail call void %7(ptr noundef nonnull align 8 dereferenceable(712) %3) #22
  store ptr null, ptr %2, align 8
  br label %8

8:                                                ; preds = %4, %1
  %9 = getelementptr inbounds i8, ptr %0, i64 208
  %10 = load ptr, ptr %9, align 8
  %.not2 = icmp eq ptr %10, null
  br i1 %.not2, label %15, label %11

11:                                               ; preds = %8
  %12 = load ptr, ptr %10, align 8
  %13 = getelementptr inbounds i8, ptr %12, i64 56
  %14 = load ptr, ptr %13, align 8
  tail call void %14(ptr noundef nonnull align 8 dereferenceable(720) %10) #22
  store ptr null, ptr %9, align 8
  br label %15

15:                                               ; preds = %11, %8
  %16 = getelementptr inbounds i8, ptr %0, i64 64
  %17 = load ptr, ptr %16, align 8
  %.not8.i.i = icmp eq ptr %17, %16
  br i1 %.not8.i.i, label %_ZNSt7__cxx114listIN15colvarbias_meta4hillESaIS2_EE5clearEv.exit, label %.lr.ph.i.i

.lr.ph.i.i:                                       ; preds = %15, %.lr.ph.i.i
  %.09.i.i = phi ptr [ %18, %.lr.ph.i.i ], [ %17, %15 ]
  %18 = load ptr, ptr %.09.i.i, align 8
  %19 = getelementptr inbounds i8, ptr %.09.i.i, i64 16
  tail call void @_ZN15colvarbias_meta4hillD1Ev(ptr noundef nonnull align 8 dereferenceable(112) %19) #22
  tail call void @_ZdlPv(ptr noundef %.09.i.i) #23
  %.not.i.i = icmp eq ptr %18, %16
  br i1 %.not.i.i, label %_ZNSt7__cxx114listIN15colvarbias_meta4hillESaIS2_EE5clearEv.exit, label %.lr.ph.i.i, !llvm.loop !17

_ZNSt7__cxx114listIN15colvarbias_meta4hillESaIS2_EE5clearEv.exit: ; preds = %.lr.ph.i.i, %15
  %20 = getelementptr inbounds i8, ptr %0, i64 72
  store ptr %16, ptr %20, align 8
  store ptr %16, ptr %16, align 8
  %21 = getelementptr inbounds i8, ptr %0, i64 80
  store i64 0, ptr %21, align 8
  %22 = getelementptr inbounds i8, ptr %0, i64 96
  %23 = load ptr, ptr %22, align 8
  %.not8.i.i3 = icmp eq ptr %23, %22
  br i1 %.not8.i.i3, label %_ZNSt7__cxx114listIN15colvarbias_meta4hillESaIS2_EE5clearEv.exit7, label %.lr.ph.i.i4

.lr.ph.i.i4:                                      ; preds = %_ZNSt7__cxx114listIN15colvarbias_meta4hillESaIS2_EE5clearEv.exit, %.lr.ph.i.i4
  %.09.i.i5 = phi ptr [ %24, %.lr.ph.i.i4 ], [ %23, %_ZNSt7__cxx114listIN15colvarbias_meta4hillESaIS2_EE5clearEv.exit ]
  %24 = load ptr, ptr %.09.i.i5, align 8
  %25 = getelementptr inbounds i8, ptr %.09.i.i5, i64 16
  tail call void @_ZN15colvarbias_meta4hillD1Ev(ptr noundef nonnull align 8 dereferenceable(112) %25) #22
  tail call void @_ZdlPv(ptr noundef %.09.i.i5) #23
  %.not.i.i6 = icmp eq ptr %24, %22
  br i1 %.not.i.i6, label %_ZNSt7__cxx114listIN15colvarbias_meta4hillESaIS2_EE5clearEv.exit7, label %.lr.ph.i.i4, !llvm.loop !17

_ZNSt7__cxx114listIN15colvarbias_meta4hillESaIS2_EE5clearEv.exit7: ; preds = %.lr.ph.i.i4, %_ZNSt7__cxx114listIN15colvarbias_meta4hillESaIS2_EE5clearEv.exit
  %26 = getelementptr inbounds i8, ptr %0, i64 104
  store ptr %22, ptr %26, align 8
  store ptr %22, ptr %22, align 8
  %27 = getelementptr inbounds i8, ptr %0, i64 112
  store i64 0, ptr %27, align 8
  ret i32 0
}